; ModuleID = 'bench/openusd/original/testSystemInfo.cpp.ll'
source_filename = "bench/openusd/original/testSystemInfo.cpp.ll"
target datalayout = "e-m:e-p270:32:32-p271:32:32-p272:64:64-i64:64-i128:128-f80:128-n8:16:32:64-S128"
target triple = "x86_64-pc-linux-gnu"

%"class.std::__cxx11::basic_string" = type { %"struct.std::__cxx11::basic_string<char>::_Alloc_hider", i64, %union.anon }
%"struct.std::__cxx11::basic_string<char>::_Alloc_hider" = type { ptr }
%union.anon = type { i64, [8 x i8] }

@.str = private unnamed_addr constant [9 x i8] c"testArch\00", align 1
@.str.1 = private unnamed_addr constant [75 x i8] c"[ArchGetExecutablePath().find(\22testArch\22, 0) != string::npos] axiom failed\00", align 1
@__func__.main = private unnamed_addr constant [5 x i8] c"main\00", align 1
@.str.2 = private unnamed_addr constant [134 x i8] c"generated/home/dtcxzyw/WorkSpace/Projects/compilers/llvm-opt-benchmark/bench/openusd/OpenUSD/pxr/base/arch/testenv/testSystemInfo.cpp\00", align 1

; Function Attrs: mustprogress norecurse uwtable
define dso_local noundef i32 @main(i32 noundef %0, ptr noundef readnone captures(none) %1) local_unnamed_addr #0 {
  %3 = alloca %"class.std::__cxx11::basic_string", align 8
  call void @_ZN32pxrInternal_v0_24__pxrReserved__21ArchGetExecutablePathB5cxx11Ev(ptr dead_on_unwind nonnull writable sret(%"class.std::__cxx11::basic_string") align 8 %3)
  %4 = call noundef i64 @_ZNKSt7__cxx1112basic_stringIcSt11char_traitsIcESaIcEE4findEPKcm(ptr noundef nonnull align 8 dereferenceable(32) %3, ptr noundef nonnull @.str, i64 noundef 0) #4
  %.not = icmp eq i64 %4, -1
  call void @_ZNSt7__cxx1112basic_stringIcSt11char_traitsIcESaIcEED1Ev(ptr noundef nonnull align 8 dereferenceable(32) %3) #4
  br i1 %.not, label %5, label %6

5:                                                ; preds = %2
  call void @_ZN32pxrInternal_v0_24__pxrReserved__10Arch_ErrorEPKcS1_mS1_(ptr noundef nonnull @.str.1, ptr noundef nonnull @__func__.main, i64 noundef 19, ptr noundef nonnull @.str.2) #5
  unreachable

6:                                                ; preds = %2
  ret i32 0
}

declare void @_ZN32pxrInternal_v0_24__pxrReserved__21ArchGetExecutablePathB5cxx11Ev(ptr dead_on_unwind writable sret(%"class.std::__cxx11::basic_string") align 8) local_unnamed_addr #1

; Function Attrs: nounwind
declare noundef i64 @_ZNKSt7__cxx1112basic_stringIcSt11char_traitsIcESaIcEE4findEPKcm(ptr noundef nonnull align 8 dereferenceable(32), ptr noundef, i64 noundef) local_unnamed_addr #2

; Function Attrs: nounwind
declare void @_ZNSt7__cxx1112basic_stringIcSt11char_traitsIcESaIcEED1Ev(ptr noundef nonnull align 8 dereferenceable(32)) unnamed_addr #2

; Function Attrs: noreturn
declare void @_ZN32pxrInternal_v0_24__pxrReserved__10Arch_ErrorEPKcS1_mS1_(ptr noundef, ptr noundef, i64 noundef, ptr noundef) local_unnamed_addr #3


!llvm.module.flags = !{!0, !1, !2, !3, !4}

!0 = !{i32 1, !"wchar_size", i32 4}
!1 = !{i32 8, !"PIC Level", i32 2}
!2 = !{i32 7, !"PIE Level", i32 2}
!3 = !{i32 7, !"uwtable", i32 2}
!4 = !{i32 7, !"frame-pointer", i32 2}
